target datalayout = "e-m:e-p270:32:32-p271:32:32-p272:64:64-i64:64-i128:128-f80:128-n8:16:32:64-S128"
target triple = "x86_64-pc-linux-gnu"

%class.RandomNumber = type { ptr, ptr, %"class.std::map", i64 }
%"class.std::map" = type { %"class.std::_Rb_tree" }
%"class.std::_Rb_tree" = type { %"struct.std::_Rb_tree<RNDNUM_GENERATOR, std::pair<const RNDNUM_GENERATOR, AbsRndNumGenerator *>, std::_Select1st<std::pair<const RNDNUM_GENERATOR, AbsRndNumGenerator *>>, std::less<RNDNUM_GENERATOR>>::_Rb_tree_impl" }
%"struct.std::_Rb_tree<RNDNUM_GENERATOR, std::pair<const RNDNUM_GENERATOR, AbsRndNumGenerator *>, std::_Select1st<std::pair<const RNDNUM_GENERATOR, AbsRndNumGenerator *>>, std::less<RNDNUM_GENERATOR>>::_Rb_tree_impl" = type { %"struct.std::_Rb_tree_key_compare", %"struct.std::_Rb_tree_header" }
%"struct.std::_Rb_tree_key_compare" = type { %"struct.std::less" }
%"struct.std::less" = type { i8 }
%"struct.std::_Rb_tree_header" = type { %"struct.std::_Rb_tree_node_base", i64 }
%"struct.std::_Rb_tree_node_base" = type { i32, ptr, ptr, ptr }

@_ZN12RandomNumber9instance_E = dso_local global ptr null, align 8

; Function Attrs: mustprogress nounwind uwtable
define linkonce_odr dso_local noundef i32 @_ZN18AbsRndNumGenerator5countEv() #5 comdat align 2 {
  ret i32 2
}

; Function Attrs: mustprogress uwtable
define dso_local void @_ZN12RandomNumber14doFinalizationEv() #4 align 2 {
  %1 = alloca i32, align 4
  %2 = alloca ptr, align 8
  %3 = alloca i32, align 4
  %4 = alloca i32, align 4
  %5 = call noundef i32 @_ZN18AbsRndNumGenerator5countEv()
  store i32 %5, ptr %1, align 4
  store i32 0, ptr %3, align 4
  br label %6

6:                                                ; preds = %23, %0
  %7 = load i32, ptr %3, align 4
  %8 = load i32, ptr %1, align 4
  %9 = icmp ult i32 %7, %8
  br i1 %9, label %10, label %26

10:                                               ; preds = %6
  %11 = load i32, ptr %3, align 4
  store i32 %11, ptr %4, align 4
  %12 = load ptr, ptr @_ZN12RandomNumber9instance_E, align 8
  %13 = getelementptr inbounds %class.RandomNumber, ptr %12, i32 0, i32 2
  %14 = call noundef nonnull align 8 dereferenceable(8) ptr @_ZNSt3mapI16RNDNUM_GENERATORP18AbsRndNumGeneratorSt4lessIS0_ESaISt4pairIKS0_S2_EEEixERS6_(ptr noundef nonnull align 8 dereferenceable(48) %13, ptr noundef nonnull align 4 dereferenceable(4) %4)
  %15 = load ptr, ptr %14, align 8
  store ptr %15, ptr %2, align 8
  %16 = load ptr, ptr %2, align 8
  %17 = icmp eq ptr %16, null
  br i1 %17, label %22, label %18

18:                                               ; preds = %10
  %19 = load ptr, ptr %16, align 8
  %20 = getelementptr inbounds ptr, ptr %19, i64 9
  %21 = load ptr, ptr %20, align 8
  call void %21(ptr noundef nonnull align 8 dereferenceable(8) %16) #3
  br label %22

22:                                               ; preds = %18, %10
  br label %23

23:                                               ; preds = %22
  %24 = load i32, ptr %3, align 4
  %25 = add i32 %24, 1
  store i32 %25, ptr %3, align 4
  br label %6, !llvm.loop !8

26:                                               ; preds = %6
  %27 = load ptr, ptr @_ZN12RandomNumber9instance_E, align 8
  %28 = icmp eq ptr %27, null
  br i1 %28, label %33, label %29

29:                                               ; preds = %26
  %30 = load ptr, ptr %27, align 8
  %31 = getelementptr inbounds ptr, ptr %30, i64 3
  %32 = load ptr, ptr %31, align 8
  call void %32(ptr noundef nonnull align 8 dereferenceable(72) %27) #3
  br label %33

33:                                               ; preds = %29, %26
  ret void
}