; Function Attrs: mustprogress uwtable
define dso_local void @_ZN12RandomNumber14doFinalizationEv() local_unnamed_addr #3 align 2 {
  %1 = alloca i32, align 4
  br label %2

2:                                                ; preds = %0, %13
  %3 = phi i1 [ true, %0 ], [ false, %13 ]
  %.06 = phi i32 [ 0, %0 ], [ 1, %13 ]
  store i32 %.06, ptr %1, align 4
  %4 = load ptr, ptr @_ZN12RandomNumber9instance_E, align 8
  %5 = getelementptr inbounds i8, ptr %4, i64 16
  %6 = call noundef nonnull align 8 dereferenceable(8) ptr @_ZNSt3mapI16RNDNUM_GENERATORP18AbsRndNumGeneratorSt4lessIS0_ESaISt4pairIKS0_S2_EEEixERS6_(ptr noundef nonnull align 8 dereferenceable(48) %5, ptr noundef nonnull align 4 dereferenceable(4) %1)
  %7 = load ptr, ptr %6, align 8
  %8 = icmp eq ptr %7, null
  br i1 %8, label %13, label %9

9:                                                ; preds = %2
  %10 = load ptr, ptr %7, align 8
  %11 = getelementptr inbounds i8, ptr %10, i64 72
  %12 = load ptr, ptr %11, align 8
  call void %12(ptr noundef nonnull align 8 dereferenceable(8) %7) #13
  br label %13

13:                                               ; preds = %2, %9
  br i1 %3, label %2, label %14, !llvm.loop !8

14:                                               ; preds = %13
  %15 = load ptr, ptr @_ZN12RandomNumber9instance_E, align 8
  %16 = icmp eq ptr %15, null
  br i1 %16, label %21, label %17

17:                                               ; preds = %14
  %18 = load ptr, ptr %15, align 8
  %19 = getelementptr inbounds i8, ptr %18, i64 24
  %20 = load ptr, ptr %19, align 8
  call void %20(ptr noundef nonnull align 8 dereferenceable(72) %15) #13
  br label %21

21:                                               ; preds = %17, %14
  ret void
}